; Function Attrs: mustprogress uwtable
define hidden void @_ZN6timeitC2EbPKcPSo(ptr noundef nonnull writeonly align 8 captures(none) dereferenceable(8) initializes((0, 8)) %0, i1 noundef zeroext %1, ptr noundef %2, ptr noundef %3) unnamed_addr #3 align 2 personality ptr @__gxx_personality_v0 {
  br i1 %1, label %5, label %_ZN6timeit3impC2EPKcRSo.exit

5:                                                ; preds = %4
  %6 = tail call noalias noundef ptr @_ZN6memory8allocateEm(i64 noundef 48)
  %.not = icmp eq ptr %3, null
  %7 = select i1 %.not, ptr @_ZSt4cerr, ptr %3
  tail call void @llvm.memset.p0.i64(ptr noundef nonnull align 8 dereferenceable(48) %6, i8 0, i64 17, i1 false)
  %8 = getelementptr inbounds nuw i8, ptr %6, i64 24
  store ptr %2, ptr %8, align 8, !tbaa !3
  %9 = getelementptr inbounds nuw i8, ptr %6, i64 32
  store ptr %7, ptr %9, align 8, !tbaa !16
  %10 = getelementptr inbounds nuw i8, ptr %6, i64 40
  %11 = tail call noundef i64 @_ZN6memory19get_allocation_sizeEv()
  %12 = uitofp i64 %11 to double
  %13 = fmul double %12, 0x3EB0000000000000
  store double %13, ptr %10, align 8, !tbaa !17
  %14 = getelementptr inbounds nuw i8, ptr %6, i64 16
  %15 = tail call i64 @_ZNSt6chrono3_V212steady_clock3nowEv() #11
  store i64 %15, ptr %6, align 8, !tbaa !18
  store i8 1, ptr %14, align 8, !tbaa !19
  br label %_ZN6timeit3impC2EPKcRSo.exit

_ZN6timeit3impC2EPKcRSo.exit:                     ; preds = %5, %4
  %storemerge = phi ptr [ null, %4 ], [ %6, %5 ]
  store ptr %storemerge, ptr %0, align 8, !tbaa !20
  ret void
}